; Function Attrs: uwtable
define void @_ZN7rocksdb19InstrumentedCondVar4WaitEv(ptr noundef nonnull align 8 dereferenceable(76) %0) local_unnamed_addr #3 align 2 personality ptr @__gxx_personality_v0 {
  %2 = alloca %"class.rocksdb::PerfStepTimer", align 8
  call void @llvm.lifetime.start.p0(i64 40, ptr nonnull %2) #15
  %.not.i = icmp eq ptr @_ZTHN7rocksdb12perf_contextE, null
  br i1 %.not.i, label %_ZTWN7rocksdb12perf_contextE.exit, label %3

3:                                                ; preds = %1
  tail call void @_ZTHN7rocksdb12perf_contextE()
  br label %_ZTWN7rocksdb12perf_contextE.exit

_ZTWN7rocksdb12perf_contextE.exit:                ; preds = %1, %3
  %4 = tail call noundef align 8 ptr @llvm.threadlocal.address.p0(ptr align 8 @_ZN7rocksdb12perf_contextE)
  %5 = getelementptr inbounds nuw i8, ptr %4, i64 488
  %6 = getelementptr inbounds nuw i8, ptr %0, i64 64
  %7 = load ptr, ptr %6, align 8, !tbaa !43
  %8 = getelementptr inbounds nuw i8, ptr %0, i64 56
  %9 = load ptr, ptr %8, align 8, !tbaa !47
  %10 = icmp ne ptr %7, null
  %11 = icmp ne ptr %9, null
  %or.cond.i = and i1 %10, %11
  br i1 %or.cond.i, label %12, label %16

12:                                               ; preds = %_ZTWN7rocksdb12perf_contextE.exit
  %13 = getelementptr inbounds nuw i8, ptr %9, i64 32
  %14 = load atomic i8, ptr %13 monotonic, align 1
  %15 = icmp ugt i8 %14, 4
  br i1 %15, label %_ZN7rocksdb12_GLOBAL__N_116stats_for_reportEPNS_11SystemClockEPNS_10StatisticsE.exit, label %16

16:                                               ; preds = %12, %_ZTWN7rocksdb12perf_contextE.exit
  br label %_ZN7rocksdb12_GLOBAL__N_116stats_for_reportEPNS_11SystemClockEPNS_10StatisticsE.exit

_ZN7rocksdb12_GLOBAL__N_116stats_for_reportEPNS_11SystemClockEPNS_10StatisticsE.exit: ; preds = %12, %16
  %17 = phi ptr [ null, %16 ], [ %9, %12 ]
  %18 = getelementptr inbounds nuw i8, ptr %0, i64 72
  %19 = load i32, ptr %18, align 8, !tbaa !48
  %.not.i.i = icmp eq ptr @_ZTHN7rocksdb10perf_levelE, null
  br i1 %.not.i.i, label %_ZTWN7rocksdb10perf_levelE.exit.i, label %20

20:                                               ; preds = %_ZN7rocksdb12_GLOBAL__N_116stats_for_reportEPNS_11SystemClockEPNS_10StatisticsE.exit
  tail call void @_ZTHN7rocksdb10perf_levelE()
  br label %_ZTWN7rocksdb10perf_levelE.exit.i

_ZTWN7rocksdb10perf_levelE.exit.i:                ; preds = %20, %_ZN7rocksdb12_GLOBAL__N_116stats_for_reportEPNS_11SystemClockEPNS_10StatisticsE.exit
  %21 = tail call noundef align 1 ptr @llvm.threadlocal.address.p0(ptr align 1 @_ZN7rocksdb10perf_levelE)
  %22 = load i8, ptr %21, align 1, !tbaa !22
  %23 = icmp ugt i8 %22, 5
  %24 = zext i1 %23 to i8
  store i8 %24, ptr %2, align 8, !tbaa !24
  %25 = getelementptr inbounds nuw i8, ptr %2, i64 1
  store i8 0, ptr %25, align 1, !tbaa !28
  %26 = getelementptr inbounds nuw i8, ptr %2, i64 4
  store i32 %19, ptr %26, align 4, !tbaa !29
  %27 = icmp ne ptr %17, null
  %or.cond.i2 = or i1 %27, %23
  br i1 %or.cond.i2, label %28, label %_ZN7rocksdb13PerfStepTimerC2EPmPNS_11SystemClockEbNS_9PerfLevelEPNS_10StatisticsEj.exit

28:                                               ; preds = %_ZTWN7rocksdb10perf_levelE.exit.i
  %29 = tail call noundef nonnull align 8 dereferenceable(16) ptr @_ZN7rocksdb11SystemClock7DefaultEv()
  %30 = load ptr, ptr %29, align 8, !tbaa !30
  br label %_ZN7rocksdb13PerfStepTimerC2EPmPNS_11SystemClockEbNS_9PerfLevelEPNS_10StatisticsEj.exit

_ZN7rocksdb13PerfStepTimerC2EPmPNS_11SystemClockEbNS_9PerfLevelEPNS_10StatisticsEj.exit: ; preds = %_ZTWN7rocksdb10perf_levelE.exit.i, %28
  %31 = phi ptr [ %30, %28 ], [ null, %_ZTWN7rocksdb10perf_levelE.exit.i ]
  %32 = getelementptr inbounds nuw i8, ptr %2, i64 8
  store ptr %31, ptr %32, align 8, !tbaa !34
  %33 = getelementptr inbounds nuw i8, ptr %2, i64 16
  store i64 0, ptr %33, align 8, !tbaa !35
  %34 = getelementptr inbounds nuw i8, ptr %2, i64 24
  store ptr %5, ptr %34, align 8, !tbaa !36
  %35 = getelementptr inbounds nuw i8, ptr %2, i64 32
  store ptr %17, ptr %35, align 8, !tbaa !37
  %36 = load i32, ptr %18, align 8, !tbaa !48
  %37 = icmp eq i32 %36, 76
  %or.cond = and i1 %37, %or.cond.i2
  br i1 %or.cond, label %38, label %_ZN7rocksdb13PerfStepTimer5StartEv.exit

38:                                               ; preds = %_ZN7rocksdb13PerfStepTimerC2EPmPNS_11SystemClockEbNS_9PerfLevelEPNS_10StatisticsEj.exit
  %39 = load ptr, ptr %31, align 8, !tbaa !38
  %40 = getelementptr inbounds nuw i8, ptr %39, i64 160
  %41 = load ptr, ptr %40, align 8
  %42 = invoke noundef i64 %41(ptr noundef nonnull align 8 dereferenceable(32) %31)
          to label %.noexc unwind label %43

.noexc:                                           ; preds = %38
  store i64 %42, ptr %33, align 8, !tbaa !35
  br label %_ZN7rocksdb13PerfStepTimer5StartEv.exit

43:                                               ; preds = %_ZN7rocksdb13PerfStepTimer5StartEv.exit, %38
  %44 = landingpad { ptr, i32 }
          cleanup
  call void @_ZN7rocksdb13PerfStepTimerD2Ev(ptr noundef nonnull align 8 dereferenceable(40) %2) #15
  call void @llvm.lifetime.end.p0(i64 40, ptr nonnull %2) #15
  resume { ptr, i32 } %44

_ZN7rocksdb13PerfStepTimer5StartEv.exit:          ; preds = %.noexc, %_ZN7rocksdb13PerfStepTimerC2EPmPNS_11SystemClockEbNS_9PerfLevelEPNS_10StatisticsEj.exit
  %45 = phi i64 [ %42, %.noexc ], [ 0, %_ZN7rocksdb13PerfStepTimerC2EPmPNS_11SystemClockEbNS_9PerfLevelEPNS_10StatisticsEj.exit ]
  invoke void @_ZN7rocksdb4port7CondVar4WaitEv(ptr noundef nonnull align 8 dereferenceable(76) %0)
          to label %_ZN7rocksdb19InstrumentedCondVar12WaitInternalEv.exit unwind label %43

_ZN7rocksdb19InstrumentedCondVar12WaitInternalEv.exit: ; preds = %_ZN7rocksdb13PerfStepTimer5StartEv.exit
  %.not.i.i5 = icmp eq i64 %45, 0
  br i1 %.not.i.i5, label %_ZN7rocksdb13PerfStepTimerD2Ev.exit, label %46

46:                                               ; preds = %_ZN7rocksdb19InstrumentedCondVar12WaitInternalEv.exit
  %47 = load ptr, ptr %31, align 8, !tbaa !38
  %48 = getelementptr inbounds nuw i8, ptr %47, i64 160
  %49 = load ptr, ptr %48, align 8
  %50 = invoke noundef i64 %49(ptr noundef nonnull align 8 dereferenceable(32) %31)
          to label %.noexc.i unwind label %59

.noexc.i:                                         ; preds = %46
  %51 = sub i64 %50, %45
  br i1 %23, label %52, label %55

52:                                               ; preds = %.noexc.i
  %53 = load i64, ptr %5, align 8, !tbaa !40
  %54 = add i64 %53, %51
  store i64 %54, ptr %5, align 8, !tbaa !40
  br label %55

55:                                               ; preds = %52, %.noexc.i
  %.not2.i.i = icmp eq ptr %17, null
  br i1 %.not2.i.i, label %_ZN7rocksdb13PerfStepTimerD2Ev.exit, label %_ZN7rocksdb10RecordTickEPNS_10StatisticsEjm.exit.i.i

_ZN7rocksdb10RecordTickEPNS_10StatisticsEjm.exit.i.i: ; preds = %55
  %56 = load ptr, ptr %17, align 8, !tbaa !38
  %57 = getelementptr inbounds nuw i8, ptr %56, i64 176
  %58 = load ptr, ptr %57, align 8
  invoke void %58(ptr noundef nonnull align 8 dereferenceable(33) %17, i32 noundef %19, i64 noundef %51)
          to label %_ZN7rocksdb13PerfStepTimerD2Ev.exit unwind label %59

59:                                               ; preds = %_ZN7rocksdb10RecordTickEPNS_10StatisticsEjm.exit.i.i, %46
  %60 = landingpad { ptr, i32 }
          catch ptr null
  %61 = extractvalue { ptr, i32 } %60, 0
  tail call void @__clang_call_terminate(ptr %61) #16
  unreachable

_ZN7rocksdb13PerfStepTimerD2Ev.exit:              ; preds = %55, %_ZN7rocksdb10RecordTickEPNS_10StatisticsEjm.exit.i.i, %_ZN7rocksdb19InstrumentedCondVar12WaitInternalEv.exit
  call void @llvm.lifetime.end.p0(i64 40, ptr nonnull %2) #15
  ret void
}